; Function Attrs: inlinehint nounwind uwtable
define internal fastcc ptr @_(ptr noundef %0) unnamed_addr #7 {
  %2 = load i8, ptr %0, align 1, !tbaa !43
  %.not = icmp eq i8 %2, 0
  br i1 %.not, label %7, label %3

3:                                                ; preds = %1
  %4 = load i32, ptr @git_gettext_enabled, align 4, !tbaa !41
  %.not4 = icmp eq i32 %4, 0
  br i1 %.not4, label %7, label %5

5:                                                ; preds = %3
  %6 = tail call ptr @dcgettext(ptr noundef null, ptr noundef nonnull %0, i32 noundef 5) #22
  br label %7

7:                                                ; preds = %3, %1, %5
  %.0 = phi ptr [ %6, %5 ], [ @.str.63, %1 ], [ %0, %3 ]
  ret ptr %.0
}